target datalayout = "e-m:e-p270:32:32-p271:32:32-p272:64:64-i64:64-i128:128-f80:128-n8:16:32:64-S128"
target triple = "x86_64-pc-linux-gnu"

%struct._lv_global_t = type { i8, i8, %struct.lv_ll_t, ptr, ptr, %struct.lv_ll_t, i8, i32, i32, ptr, %struct.lv_ll_t, ptr, %struct.lv_ll_t, ptr, ptr, i32, ptr, i8, i32, i32, ptr, i32, %struct.lv_timer_state_t, %struct.lv_anim_state_t, %struct.lv_tick_state_t, %struct._lv_draw_buf_handlers_t, %struct._lv_draw_buf_handlers_t, %struct._lv_draw_buf_handlers_t, %struct.lv_ll_t, ptr, ptr, %struct.lv_draw_global_info_t, [4 x %struct.lv_draw_sw_mask_radius_circle_dsc_t], ptr, ptr, ptr, %struct.lv_tlsf_state_t, %struct.lv_ll_t, ptr, ptr, %struct.lv_style_t, i64, ptr, i32, ptr }
%struct.lv_timer_state_t = type { %struct.lv_ll_t, i8, i8, i8, i8, i32, i8, i32, i32, i32, i32, ptr, ptr }
%struct.lv_anim_state_t = type { i8, i8, ptr, %struct.lv_ll_t }
%struct.lv_tick_state_t = type { i32, i8, ptr, ptr }
%struct._lv_draw_buf_handlers_t = type { ptr, ptr, ptr, ptr, ptr, ptr }
%struct.lv_draw_global_info_t = type { ptr, i32, i32, i32, i32, i8 }
%struct.lv_draw_sw_mask_radius_circle_dsc_t = type { ptr, ptr, ptr, ptr, i32, i32, i32 }
%struct.lv_tlsf_state_t = type { ptr, i64, i64, %struct.lv_ll_t }
%struct.lv_ll_t = type { i32, ptr, ptr }
%struct.lv_style_t = type { ptr, i32, i8 }
%struct._lv_display_t = type { i32, i32, i32, i32, i32, i32, i32, ptr, ptr, ptr, ptr, ptr, i32, i32, i8, i32, i16, i32, [32 x %struct.lv_area_t], [32 x i8], i32, i32, %struct.lv_ll_t, %struct._lv_draw_buf_t, %struct._lv_draw_buf_t, ptr, ptr, ptr, ptr, ptr, ptr, ptr, ptr, ptr, ptr, i32, i8, ptr, ptr, %struct.lv_event_list_t, i8, ptr, ptr, i32, %struct.lv_area_t }
%struct._lv_draw_buf_t = type { %struct.lv_image_header_t, i32, ptr, ptr, ptr }
%struct.lv_image_header_t = type <{ i64, i32 }>
%struct.lv_event_list_t = type { %struct._lv_array_t, i8 }
%struct._lv_array_t = type { ptr, i32, i32, i32, i8 }
%struct.lv_area_t = type { i32, i32, i32, i32 }
%struct._lv_event_t = type { ptr, ptr, i32, ptr, ptr, ptr, i8 }

@lv_global = external global %struct._lv_global_t, align 8

; Function Attrs: inlinehint nounwind uwtable
define internal void @lv_memzero(ptr noundef %0, i64 noundef %1) #3 {
  %3 = alloca ptr, align 8
  %4 = alloca i64, align 8
  store ptr %0, ptr %3, align 8, !tbaa !7
  store i64 %1, ptr %4, align 8, !tbaa !51
  %5 = load ptr, ptr %3, align 8, !tbaa !7
  %6 = load i64, ptr %4, align 8, !tbaa !51
  call void @lv_memset(ptr noundef %5, i8 noundef zeroext 0, i64 noundef %6)
  ret void
}

; Function Attrs: nounwind uwtable
define void @lv_display_set_default(ptr noundef %0) #0 {
  %2 = alloca ptr, align 8
  store ptr %0, ptr %2, align 8, !tbaa !7
  %3 = load ptr, ptr %2, align 8, !tbaa !7
  store ptr %3, ptr getelementptr inbounds nuw (%struct._lv_global_t, ptr @lv_global, i32 0, i32 4), align 8, !tbaa !35
  ret void
}

; Function Attrs: nounwind uwtable
define i32 @lv_display_send_event(ptr noundef %0, i32 noundef %1, ptr noundef %2) #0 {
  %4 = alloca i32, align 4
  %5 = alloca ptr, align 8
  %6 = alloca i32, align 4
  %7 = alloca ptr, align 8
  %8 = alloca %struct._lv_event_t, align 8
  %9 = alloca i32, align 4
  %10 = alloca i32, align 4
  store ptr %0, ptr %5, align 8, !tbaa !7
  store i32 %1, ptr %6, align 4, !tbaa !3
  store ptr %2, ptr %7, align 8, !tbaa !7
  call void @llvm.lifetime.start.p0(i64 56, ptr %8) #5
  call void @lv_memzero(ptr noundef %8, i64 noundef 56)
  %11 = load i32, ptr %6, align 4, !tbaa !3
  %12 = getelementptr inbounds nuw %struct._lv_event_t, ptr %8, i32 0, i32 2
  store i32 %11, ptr %12, align 8, !tbaa !61
  %13 = load ptr, ptr %5, align 8, !tbaa !7
  %14 = getelementptr inbounds nuw %struct._lv_event_t, ptr %8, i32 0, i32 0
  store ptr %13, ptr %14, align 8, !tbaa !63
  %15 = load ptr, ptr %5, align 8, !tbaa !7
  %16 = getelementptr inbounds nuw %struct._lv_event_t, ptr %8, i32 0, i32 1
  store ptr %15, ptr %16, align 8, !tbaa !64
  %17 = load ptr, ptr %7, align 8, !tbaa !7
  %18 = getelementptr inbounds nuw %struct._lv_event_t, ptr %8, i32 0, i32 4
  store ptr %17, ptr %18, align 8, !tbaa !65
  call void @llvm.lifetime.start.p0(i64 4, ptr %9) #5
  %19 = load ptr, ptr %5, align 8, !tbaa !7
  %20 = getelementptr inbounds nuw %struct._lv_display_t, ptr %19, i32 0, i32 39
  %21 = call i32 @lv_event_send(ptr noundef %20, ptr noundef %8, i1 noundef zeroext true)
  store i32 %21, ptr %9, align 4, !tbaa !3
  %22 = load i32, ptr %9, align 4, !tbaa !3
  %23 = icmp ne i32 %22, 1
  br i1 %23, label %24, label %26

24:                                               ; preds = %3
  %25 = load i32, ptr %9, align 4, !tbaa !3
  store i32 %25, ptr %4, align 4
  store i32 1, ptr %10, align 4
  br label %36

26:                                               ; preds = %3
  %27 = load ptr, ptr %5, align 8, !tbaa !7
  %28 = getelementptr inbounds nuw %struct._lv_display_t, ptr %27, i32 0, i32 39
  %29 = call i32 @lv_event_send(ptr noundef %28, ptr noundef %8, i1 noundef zeroext false)
  store i32 %29, ptr %9, align 4, !tbaa !3
  %30 = load i32, ptr %9, align 4, !tbaa !3
  %31 = icmp ne i32 %30, 1
  br i1 %31, label %32, label %34

32:                                               ; preds = %26
  %33 = load i32, ptr %9, align 4, !tbaa !3
  store i32 %33, ptr %4, align 4
  store i32 1, ptr %10, align 4
  br label %36

34:                                               ; preds = %26
  %35 = load i32, ptr %9, align 4, !tbaa !3
  store i32 %35, ptr %4, align 4
  store i32 1, ptr %10, align 4
  br label %36

36:                                               ; preds = %34, %32, %24
  call void @llvm.lifetime.end.p0(i64 4, ptr %9) #5
  call void @llvm.lifetime.end.p0(i64 56, ptr %8) #5
  %37 = load i32, ptr %4, align 4
  ret i32 %37
}

; Function Attrs: nounwind uwtable
define ptr @lv_display_get_default() #0 {
  %1 = load ptr, ptr getelementptr inbounds nuw (%struct._lv_global_t, ptr @lv_global, i32 0, i32 4), align 8, !tbaa !35
  ret ptr %1
}

; Function Attrs: nounwind uwtable
define void @lv_display_delete(ptr noundef %0) #0 {
  %2 = alloca ptr, align 8
  %3 = alloca i8, align 1
  %4 = alloca i8, align 1
  %5 = alloca ptr, align 8
  store ptr %0, ptr %2, align 8, !tbaa !7
  call void @llvm.lifetime.start.p0(i64 1, ptr %3) #5
  store i8 0, ptr %3, align 1, !tbaa !52
  call void @llvm.lifetime.start.p0(i64 1, ptr %4) #5
  store i8 0, ptr %4, align 1, !tbaa !52
  %6 = load ptr, ptr %2, align 8, !tbaa !7
  %7 = call ptr @lv_display_get_default()
  %8 = icmp eq ptr %6, %7
  br i1 %8, label %9, label %10

9:                                                ; preds = %1
  store i8 1, ptr %3, align 1, !tbaa !52
  br label %10

10:                                               ; preds = %9, %1
  %11 = load ptr, ptr %2, align 8, !tbaa !7
  %12 = call ptr @lv_refr_get_disp_refreshing()
  %13 = icmp eq ptr %11, %12
  br i1 %13, label %14, label %15

14:                                               ; preds = %10
  store i8 1, ptr %4, align 1, !tbaa !52
  br label %15

15:                                               ; preds = %14, %10
  %16 = load ptr, ptr %2, align 8, !tbaa !7
  %17 = call i32 @lv_display_send_event(ptr noundef %16, i32 noundef 41, ptr noundef null)
  %18 = load ptr, ptr %2, align 8, !tbaa !7
  %19 = getelementptr inbounds nuw %struct._lv_display_t, ptr %18, i32 0, i32 39
  call void @lv_event_remove_all(ptr noundef %19)
  call void @llvm.lifetime.start.p0(i64 8, ptr %5) #5
  %20 = call ptr @lv_indev_get_next(ptr noundef null)
  store ptr %20, ptr %5, align 8, !tbaa !7
  br label %21

21:                                               ; preds = %31, %15
  %22 = load ptr, ptr %5, align 8, !tbaa !7
  %23 = icmp ne ptr %22, null
  br i1 %23, label %24, label %34

24:                                               ; preds = %21
  %25 = load ptr, ptr %5, align 8, !tbaa !7
  %26 = call ptr @lv_indev_get_display(ptr noundef %25)
  %27 = load ptr, ptr %2, align 8, !tbaa !7
  %28 = icmp eq ptr %26, %27
  br i1 %28, label %29, label %31

29:                                               ; preds = %24
  %30 = load ptr, ptr %5, align 8, !tbaa !7
  call void @lv_indev_set_display(ptr noundef %30, ptr noundef null)
  br label %31

31:                                               ; preds = %29, %24
  %32 = load ptr, ptr %5, align 8, !tbaa !7
  %33 = call ptr @lv_indev_get_next(ptr noundef %32)
  store ptr %33, ptr %5, align 8, !tbaa !7
  br label %21, !llvm.loop !53

34:                                               ; preds = %21
  %35 = load ptr, ptr %2, align 8, !tbaa !7
  %36 = getelementptr inbounds nuw %struct._lv_display_t, ptr %35, i32 0, i32 29
  %37 = load ptr, ptr %36, align 8, !tbaa !50
  %38 = icmp ne ptr %37, null
  br i1 %38, label %39, label %45

39:                                               ; preds = %34
  %40 = load ptr, ptr %2, align 8, !tbaa !7
  %41 = getelementptr inbounds nuw %struct._lv_display_t, ptr %40, i32 0, i32 29
  %42 = load ptr, ptr %41, align 8, !tbaa !50
  call void @lv_obj_delete(ptr noundef %42)
  %43 = load ptr, ptr %2, align 8, !tbaa !7
  %44 = getelementptr inbounds nuw %struct._lv_display_t, ptr %43, i32 0, i32 29
  store ptr null, ptr %44, align 8, !tbaa !50
  br label %45

45:                                               ; preds = %39, %34
  %46 = load ptr, ptr %2, align 8, !tbaa !7
  %47 = getelementptr inbounds nuw %struct._lv_display_t, ptr %46, i32 0, i32 30
  %48 = load ptr, ptr %47, align 8, !tbaa !49
  %49 = icmp ne ptr %48, null
  br i1 %49, label %50, label %56

50:                                               ; preds = %45
  %51 = load ptr, ptr %2, align 8, !tbaa !7
  %52 = getelementptr inbounds nuw %struct._lv_display_t, ptr %51, i32 0, i32 30
  %53 = load ptr, ptr %52, align 8, !tbaa !49
  call void @lv_obj_delete(ptr noundef %53)
  %54 = load ptr, ptr %2, align 8, !tbaa !7
  %55 = getelementptr inbounds nuw %struct._lv_display_t, ptr %54, i32 0, i32 30
  store ptr null, ptr %55, align 8, !tbaa !49
  br label %56

56:                                               ; preds = %50, %45
  %57 = load ptr, ptr %2, align 8, !tbaa !7
  %58 = getelementptr inbounds nuw %struct._lv_display_t, ptr %57, i32 0, i32 32
  %59 = load ptr, ptr %58, align 8, !tbaa !47
  %60 = icmp ne ptr %59, null
  br i1 %60, label %61, label %67

61:                                               ; preds = %56
  %62 = load ptr, ptr %2, align 8, !tbaa !7
  %63 = getelementptr inbounds nuw %struct._lv_display_t, ptr %62, i32 0, i32 32
  %64 = load ptr, ptr %63, align 8, !tbaa !47
  call void @lv_obj_delete(ptr noundef %64)
  %65 = load ptr, ptr %2, align 8, !tbaa !7
  %66 = getelementptr inbounds nuw %struct._lv_display_t, ptr %65, i32 0, i32 32
  store ptr null, ptr %66, align 8, !tbaa !47
  br label %67

67:                                               ; preds = %61, %56
  %68 = load ptr, ptr %2, align 8, !tbaa !7
  %69 = getelementptr inbounds nuw %struct._lv_display_t, ptr %68, i32 0, i32 31
  store ptr null, ptr %69, align 8, !tbaa !48
  br label %70

70:                                               ; preds = %75, %67
  %71 = load ptr, ptr %2, align 8, !tbaa !7
  %72 = getelementptr inbounds nuw %struct._lv_display_t, ptr %71, i32 0, i32 35
  %73 = load i32, ptr %72, align 8, !tbaa !55
  %74 = icmp ne i32 %73, 0
  br i1 %74, label %75, label %81

75:                                               ; preds = %70
  %76 = load ptr, ptr %2, align 8, !tbaa !7
  %77 = getelementptr inbounds nuw %struct._lv_display_t, ptr %76, i32 0, i32 28
  %78 = load ptr, ptr %77, align 8, !tbaa !56
  %79 = getelementptr inbounds ptr, ptr %78, i64 0
  %80 = load ptr, ptr %79, align 8, !tbaa !7
  call void @lv_obj_delete(ptr noundef %80)
  br label %70, !llvm.loop !57

81:                                               ; preds = %70
  %82 = load ptr, ptr %2, align 8, !tbaa !7
  %83 = getelementptr inbounds nuw %struct._lv_display_t, ptr %82, i32 0, i32 22
  call void @lv_ll_clear(ptr noundef %83)
  %84 = load ptr, ptr %2, align 8, !tbaa !7
  call void @lv_ll_remove(ptr noundef getelementptr inbounds nuw (%struct._lv_global_t, ptr @lv_global, i32 0, i32 2), ptr noundef %84)
  %85 = load ptr, ptr %2, align 8, !tbaa !7
  %86 = getelementptr inbounds nuw %struct._lv_display_t, ptr %85, i32 0, i32 42
  %87 = load ptr, ptr %86, align 8, !tbaa !45
  %88 = icmp ne ptr %87, null
  br i1 %88, label %89, label %93

89:                                               ; preds = %81
  %90 = load ptr, ptr %2, align 8, !tbaa !7
  %91 = getelementptr inbounds nuw %struct._lv_display_t, ptr %90, i32 0, i32 42
  %92 = load ptr, ptr %91, align 8, !tbaa !45
  call void @lv_timer_delete(ptr noundef %92)
  br label %93

93:                                               ; preds = %89, %81
  %94 = load ptr, ptr %2, align 8, !tbaa !7
  %95 = getelementptr inbounds nuw %struct._lv_display_t, ptr %94, i32 0, i32 27
  %96 = load ptr, ptr %95, align 8, !tbaa !58
  %97 = icmp ne ptr %96, null
  br i1 %97, label %98, label %106

98:                                               ; preds = %93
  %99 = load ptr, ptr %2, align 8, !tbaa !7
  %100 = getelementptr inbounds nuw %struct._lv_display_t, ptr %99, i32 0, i32 27
  %101 = load ptr, ptr %100, align 8, !tbaa !58
  %102 = load ptr, ptr %2, align 8, !tbaa !7
  %103 = load ptr, ptr %2, align 8, !tbaa !7
  %104 = getelementptr inbounds nuw %struct._lv_display_t, ptr %103, i32 0, i32 25
  %105 = load ptr, ptr %104, align 8, !tbaa !25
  call void %101(ptr noundef %102, ptr noundef %105)
  br label %106

106:                                              ; preds = %98, %93
  %107 = load ptr, ptr %2, align 8, !tbaa !7
  %108 = getelementptr inbounds nuw %struct._lv_display_t, ptr %107, i32 0, i32 25
  %109 = load ptr, ptr %108, align 8, !tbaa !25
  call void @lv_free(ptr noundef %109)
  %110 = load ptr, ptr %2, align 8, !tbaa !7
  call void @lv_free(ptr noundef %110)
  %111 = load i8, ptr %3, align 1, !tbaa !52, !range !59, !noundef !60
  %112 = trunc i8 %111 to i1
  br i1 %112, label %113, label %115

113:                                              ; preds = %106
  %114 = call ptr @lv_ll_get_head(ptr noundef getelementptr inbounds nuw (%struct._lv_global_t, ptr @lv_global, i32 0, i32 2))
  call void @lv_display_set_default(ptr noundef %114)
  br label %115

115:                                              ; preds = %113, %106
  %116 = load i8, ptr %4, align 1, !tbaa !52, !range !59, !noundef !60
  %117 = trunc i8 %116 to i1
  br i1 %117, label %118, label %119

118:                                              ; preds = %115
  call void @lv_refr_set_disp_refreshing(ptr noundef null)
  br label %119

119:                                              ; preds = %118, %115
  call void @llvm.lifetime.end.p0(i64 8, ptr %5) #5
  call void @llvm.lifetime.end.p0(i64 1, ptr %4) #5
  call void @llvm.lifetime.end.p0(i64 1, ptr %3) #5
  ret void
}