; Function Attrs: nounwind uwtable
define void @lv_display_delete(ptr noundef %0) local_unnamed_addr #0 {
  %2 = alloca %struct._lv_event_t, align 8
  %3 = load ptr, ptr getelementptr inbounds nuw (i8, ptr @lv_global, i64 40), align 8, !tbaa !33
  %4 = icmp eq ptr %0, %3
  %5 = tail call ptr @lv_refr_get_disp_refreshing() #13
  %6 = icmp eq ptr %0, %5
  call void @llvm.lifetime.start.p0(i64 56, ptr nonnull %2) #13
  call void @lv_memset(ptr noundef nonnull %2, i8 noundef zeroext 0, i64 noundef 56) #13
  %7 = getelementptr inbounds nuw i8, ptr %2, i64 16
  store i32 41, ptr %7, align 8, !tbaa !48
  store ptr %0, ptr %2, align 8, !tbaa !50
  %8 = getelementptr inbounds nuw i8, ptr %2, i64 8
  store ptr %0, ptr %8, align 8, !tbaa !51
  %9 = getelementptr inbounds nuw i8, ptr %2, i64 32
  store ptr null, ptr %9, align 8, !tbaa !52
  %10 = getelementptr inbounds nuw i8, ptr %0, i64 856
  %11 = call i32 @lv_event_send(ptr noundef nonnull %10, ptr noundef nonnull %2, i1 noundef zeroext true) #13
  %.not.i = icmp eq i32 %11, 1
  br i1 %.not.i, label %12, label %lv_display_send_event.exit

12:                                               ; preds = %1
  %13 = call i32 @lv_event_send(ptr noundef nonnull %10, ptr noundef nonnull %2, i1 noundef zeroext false) #13
  br label %lv_display_send_event.exit

lv_display_send_event.exit:                       ; preds = %1, %12
  call void @llvm.lifetime.end.p0(i64 56, ptr nonnull %2) #13
  call void @lv_event_remove_all(ptr noundef nonnull %10) #13
  %14 = call ptr @lv_indev_get_next(ptr noundef null) #13
  %.not45 = icmp eq ptr %14, null
  br i1 %.not45, label %._crit_edge, label %.lr.ph

.lr.ph:                                           ; preds = %lv_display_send_event.exit, %18
  %.046 = phi ptr [ %19, %18 ], [ %14, %lv_display_send_event.exit ]
  %15 = call ptr @lv_indev_get_display(ptr noundef nonnull %.046) #13
  %16 = icmp eq ptr %15, %0
  br i1 %16, label %17, label %18

17:                                               ; preds = %.lr.ph
  call void @lv_indev_set_display(ptr noundef nonnull %.046, ptr noundef null) #13
  br label %18

18:                                               ; preds = %17, %.lr.ph
  %19 = call ptr @lv_indev_get_next(ptr noundef nonnull %.046) #13
  %.not = icmp eq ptr %19, null
  br i1 %.not, label %._crit_edge, label %.lr.ph, !llvm.loop !53

._crit_edge:                                      ; preds = %18, %lv_display_send_event.exit
  %20 = getelementptr inbounds nuw i8, ptr %0, i64 784
  %21 = load ptr, ptr %20, align 8, !tbaa !47
  %.not39 = icmp eq ptr %21, null
  br i1 %.not39, label %23, label %22

22:                                               ; preds = %._crit_edge
  call void @lv_obj_delete(ptr noundef nonnull %21) #13
  store ptr null, ptr %20, align 8, !tbaa !47
  br label %23

23:                                               ; preds = %22, %._crit_edge
  %24 = getelementptr inbounds nuw i8, ptr %0, i64 792
  %25 = load ptr, ptr %24, align 8, !tbaa !46
  %.not40 = icmp eq ptr %25, null
  br i1 %.not40, label %27, label %26

26:                                               ; preds = %23
  call void @lv_obj_delete(ptr noundef nonnull %25) #13
  store ptr null, ptr %24, align 8, !tbaa !46
  br label %27

27:                                               ; preds = %26, %23
  %28 = getelementptr inbounds nuw i8, ptr %0, i64 808
  %29 = load ptr, ptr %28, align 8, !tbaa !44
  %.not41 = icmp eq ptr %29, null
  br i1 %.not41, label %31, label %30

30:                                               ; preds = %27
  call void @lv_obj_delete(ptr noundef nonnull %29) #13
  store ptr null, ptr %28, align 8, !tbaa !44
  br label %31

31:                                               ; preds = %30, %27
  %32 = getelementptr inbounds nuw i8, ptr %0, i64 800
  store ptr null, ptr %32, align 8, !tbaa !45
  %33 = getelementptr inbounds nuw i8, ptr %0, i64 832
  %34 = load i32, ptr %33, align 8, !tbaa !55
  %.not4247 = icmp eq i32 %34, 0
  br i1 %.not4247, label %._crit_edge50, label %.lr.ph49

.lr.ph49:                                         ; preds = %31
  %35 = getelementptr inbounds nuw i8, ptr %0, i64 776
  br label %36

36:                                               ; preds = %.lr.ph49, %36
  %37 = load ptr, ptr %35, align 8, !tbaa !56
  %38 = load ptr, ptr %37, align 8, !tbaa !57
  call void @lv_obj_delete(ptr noundef %38) #13
  %39 = load i32, ptr %33, align 8, !tbaa !55
  %.not42 = icmp eq i32 %39, 0
  br i1 %.not42, label %._crit_edge50, label %36, !llvm.loop !58

._crit_edge50:                                    ; preds = %36, %31
  %40 = getelementptr inbounds nuw i8, ptr %0, i64 648
  call void @lv_ll_clear(ptr noundef nonnull %40) #13
  call void @lv_ll_remove(ptr noundef nonnull getelementptr inbounds nuw (i8, ptr @lv_global, i64 8), ptr noundef nonnull %0) #13
  %41 = getelementptr inbounds nuw i8, ptr %0, i64 904
  %42 = load ptr, ptr %41, align 8, !tbaa !43
  %.not43 = icmp eq ptr %42, null
  br i1 %.not43, label %44, label %43

43:                                               ; preds = %._crit_edge50
  call void @lv_timer_delete(ptr noundef nonnull %42) #13
  br label %44

44:                                               ; preds = %43, %._crit_edge50
  %45 = getelementptr inbounds nuw i8, ptr %0, i64 768
  %46 = load ptr, ptr %45, align 8, !tbaa !59
  %.not44 = icmp eq ptr %46, null
  br i1 %.not44, label %50, label %47

47:                                               ; preds = %44
  %48 = getelementptr inbounds nuw i8, ptr %0, i64 752
  %49 = load ptr, ptr %48, align 8, !tbaa !23
  call void %46(ptr noundef nonnull %0, ptr noundef %49) #13
  br label %50

50:                                               ; preds = %47, %44
  %51 = getelementptr inbounds nuw i8, ptr %0, i64 752
  %52 = load ptr, ptr %51, align 8, !tbaa !23
  call void @lv_free(ptr noundef %52) #13
  call void @lv_free(ptr noundef nonnull %0) #13
  br i1 %4, label %53, label %55

53:                                               ; preds = %50
  %54 = call ptr @lv_ll_get_head(ptr noundef nonnull getelementptr inbounds nuw (i8, ptr @lv_global, i64 8)) #13
  store ptr %54, ptr getelementptr inbounds nuw (i8, ptr @lv_global, i64 40), align 8, !tbaa !33
  br label %55

55:                                               ; preds = %53, %50
  br i1 %6, label %56, label %57

56:                                               ; preds = %55
  call void @lv_refr_set_disp_refreshing(ptr noundef null) #13
  br label %57

57:                                               ; preds = %56, %55
  ret void
}